target datalayout = "e-m:e-p270:32:32-p271:32:32-p272:64:64-i64:64-i128:128-f80:128-n8:16:32:64-S128"
target triple = "x86_64-pc-linux-gnu"

%struct.ccm128_context = type { %union.anon, %union.anon, i64, ptr, ptr }
%union.anon = type { [2 x i64] }
%union.anon.1 = type { [2 x i64] }

; Function Attrs: nounwind uwtable
define internal void @ctr64_inc(ptr noundef %0) #0 {
  %2 = alloca ptr, align 8
  %3 = alloca i32, align 4
  %4 = alloca i8, align 1
  %5 = alloca i32, align 4
  store ptr %0, ptr %2, align 8, !tbaa !17
  call void @llvm.lifetime.start.p0(i64 4, ptr %3) #4
  store i32 8, ptr %3, align 4, !tbaa !8
  call void @llvm.lifetime.start.p0(i64 1, ptr %4) #4
  %6 = load ptr, ptr %2, align 8, !tbaa !17
  %7 = getelementptr inbounds i8, ptr %6, i64 8
  store ptr %7, ptr %2, align 8, !tbaa !17
  br label %8

8:                                                ; preds = %27, %1
  %9 = load i32, ptr %3, align 4, !tbaa !8
  %10 = add i32 %9, -1
  store i32 %10, ptr %3, align 4, !tbaa !8
  %11 = load ptr, ptr %2, align 8, !tbaa !17
  %12 = load i32, ptr %3, align 4, !tbaa !8
  %13 = zext i32 %12 to i64
  %14 = getelementptr inbounds nuw i8, ptr %11, i64 %13
  %15 = load i8, ptr %14, align 1, !tbaa !11
  store i8 %15, ptr %4, align 1, !tbaa !11
  %16 = load i8, ptr %4, align 1, !tbaa !11
  %17 = add i8 %16, 1
  store i8 %17, ptr %4, align 1, !tbaa !11
  %18 = load i8, ptr %4, align 1, !tbaa !11
  %19 = load ptr, ptr %2, align 8, !tbaa !17
  %20 = load i32, ptr %3, align 4, !tbaa !8
  %21 = zext i32 %20 to i64
  %22 = getelementptr inbounds nuw i8, ptr %19, i64 %21
  store i8 %18, ptr %22, align 1, !tbaa !11
  %23 = load i8, ptr %4, align 1, !tbaa !11
  %24 = icmp ne i8 %23, 0
  br i1 %24, label %25, label %26

25:                                               ; preds = %8
  store i32 1, ptr %5, align 4
  br label %31

26:                                               ; preds = %8
  br label %27

27:                                               ; preds = %26
  %28 = load i32, ptr %3, align 4, !tbaa !8
  %29 = icmp ne i32 %28, 0
  br i1 %29, label %8, label %30, !llvm.loop !30

30:                                               ; preds = %27
  store i32 0, ptr %5, align 4
  br label %31

31:                                               ; preds = %30, %25
  call void @llvm.lifetime.end.p0(i64 1, ptr %4) #4
  call void @llvm.lifetime.end.p0(i64 4, ptr %3) #4
  %32 = load i32, ptr %5, align 4
  switch i32 %32, label %34 [
    i32 0, label %33
    i32 1, label %33
  ]

33:                                               ; preds = %31, %31
  ret void

34:                                               ; preds = %31
  unreachable
}

; Function Attrs: nounwind uwtable
define i32 @CRYPTO_ccm128_decrypt(ptr noundef %0, ptr noundef %1, ptr noundef %2, i64 noundef %3) #0 {
  %5 = alloca i32, align 4
  %6 = alloca ptr, align 8
  %7 = alloca ptr, align 8
  %8 = alloca ptr, align 8
  %9 = alloca i64, align 8
  %10 = alloca i64, align 8
  %11 = alloca i32, align 4
  %12 = alloca i32, align 4
  %13 = alloca i8, align 1
  %14 = alloca ptr, align 8
  %15 = alloca ptr, align 8
  %16 = alloca %union.anon.1, align 8
  %17 = alloca i32, align 4
  store ptr %0, ptr %6, align 8, !tbaa !3
  store ptr %1, ptr %7, align 8, !tbaa !17
  store ptr %2, ptr %8, align 8, !tbaa !17
  store i64 %3, ptr %9, align 8, !tbaa !19
  call void @llvm.lifetime.start.p0(i64 8, ptr %10) #4
  call void @llvm.lifetime.start.p0(i64 4, ptr %11) #4
  call void @llvm.lifetime.start.p0(i64 4, ptr %12) #4
  call void @llvm.lifetime.start.p0(i64 1, ptr %13) #4
  %18 = load ptr, ptr %6, align 8, !tbaa !3
  %19 = getelementptr inbounds nuw %struct.ccm128_context, ptr %18, i32 0, i32 0
  %20 = getelementptr inbounds [16 x i8], ptr %19, i64 0, i64 0
  %21 = load i8, ptr %20, align 8, !tbaa !11
  store i8 %21, ptr %13, align 1, !tbaa !11
  call void @llvm.lifetime.start.p0(i64 8, ptr %14) #4
  %22 = load ptr, ptr %6, align 8, !tbaa !3
  %23 = getelementptr inbounds nuw %struct.ccm128_context, ptr %22, i32 0, i32 3
  %24 = load ptr, ptr %23, align 8, !tbaa !15
  store ptr %24, ptr %14, align 8, !tbaa !10
  call void @llvm.lifetime.start.p0(i64 8, ptr %15) #4
  %25 = load ptr, ptr %6, align 8, !tbaa !3
  %26 = getelementptr inbounds nuw %struct.ccm128_context, ptr %25, i32 0, i32 4
  %27 = load ptr, ptr %26, align 8, !tbaa !16
  store ptr %27, ptr %15, align 8, !tbaa !10
  call void @llvm.lifetime.start.p0(i64 16, ptr %16) #4
  %28 = load i8, ptr %13, align 1, !tbaa !11
  %29 = zext i8 %28 to i32
  %30 = and i32 %29, 64
  %31 = icmp ne i32 %30, 0
  br i1 %31, label %41, label %32

32:                                               ; preds = %4
  %33 = load ptr, ptr %14, align 8, !tbaa !10
  %34 = load ptr, ptr %6, align 8, !tbaa !3
  %35 = getelementptr inbounds nuw %struct.ccm128_context, ptr %34, i32 0, i32 0
  %36 = getelementptr inbounds [16 x i8], ptr %35, i64 0, i64 0
  %37 = load ptr, ptr %6, align 8, !tbaa !3
  %38 = getelementptr inbounds nuw %struct.ccm128_context, ptr %37, i32 0, i32 1
  %39 = getelementptr inbounds [16 x i8], ptr %38, i64 0, i64 0
  %40 = load ptr, ptr %15, align 8, !tbaa !10
  call void %33(ptr noundef %36, ptr noundef %39, ptr noundef %40)
  br label %41

41:                                               ; preds = %32, %4
  %42 = load i8, ptr %13, align 1, !tbaa !11
  %43 = zext i8 %42 to i32
  %44 = and i32 %43, 7
  store i32 %44, ptr %12, align 4, !tbaa !8
  %45 = trunc i32 %44 to i8
  %46 = load ptr, ptr %6, align 8, !tbaa !3
  %47 = getelementptr inbounds nuw %struct.ccm128_context, ptr %46, i32 0, i32 0
  %48 = getelementptr inbounds [16 x i8], ptr %47, i64 0, i64 0
  store i8 %45, ptr %48, align 8, !tbaa !11
  store i64 0, ptr %10, align 8, !tbaa !19
  %49 = load i32, ptr %12, align 4, !tbaa !8
  %50 = sub i32 15, %49
  store i32 %50, ptr %11, align 4, !tbaa !8
  br label %51

51:                                               ; preds = %71, %41
  %52 = load i32, ptr %11, align 4, !tbaa !8
  %53 = icmp ult i32 %52, 15
  br i1 %53, label %54, label %74

54:                                               ; preds = %51
  %55 = load ptr, ptr %6, align 8, !tbaa !3
  %56 = getelementptr inbounds nuw %struct.ccm128_context, ptr %55, i32 0, i32 0
  %57 = load i32, ptr %11, align 4, !tbaa !8
  %58 = zext i32 %57 to i64
  %59 = getelementptr inbounds nuw [16 x i8], ptr %56, i64 0, i64 %58
  %60 = load i8, ptr %59, align 1, !tbaa !11
  %61 = zext i8 %60 to i64
  %62 = load i64, ptr %10, align 8, !tbaa !19
  %63 = or i64 %62, %61
  store i64 %63, ptr %10, align 8, !tbaa !19
  %64 = load ptr, ptr %6, align 8, !tbaa !3
  %65 = getelementptr inbounds nuw %struct.ccm128_context, ptr %64, i32 0, i32 0
  %66 = load i32, ptr %11, align 4, !tbaa !8
  %67 = zext i32 %66 to i64
  %68 = getelementptr inbounds nuw [16 x i8], ptr %65, i64 0, i64 %67
  store i8 0, ptr %68, align 1, !tbaa !11
  %69 = load i64, ptr %10, align 8, !tbaa !19
  %70 = shl i64 %69, 8
  store i64 %70, ptr %10, align 8, !tbaa !19
  br label %71

71:                                               ; preds = %54
  %72 = load i32, ptr %11, align 4, !tbaa !8
  %73 = add i32 %72, 1
  store i32 %73, ptr %11, align 4, !tbaa !8
  br label %51, !llvm.loop !31

74:                                               ; preds = %51
  %75 = load ptr, ptr %6, align 8, !tbaa !3
  %76 = getelementptr inbounds nuw %struct.ccm128_context, ptr %75, i32 0, i32 0
  %77 = getelementptr inbounds [16 x i8], ptr %76, i64 0, i64 15
  %78 = load i8, ptr %77, align 1, !tbaa !11
  %79 = zext i8 %78 to i64
  %80 = load i64, ptr %10, align 8, !tbaa !19
  %81 = or i64 %80, %79
  store i64 %81, ptr %10, align 8, !tbaa !19
  %82 = load ptr, ptr %6, align 8, !tbaa !3
  %83 = getelementptr inbounds nuw %struct.ccm128_context, ptr %82, i32 0, i32 0
  %84 = getelementptr inbounds [16 x i8], ptr %83, i64 0, i64 15
  store i8 1, ptr %84, align 1, !tbaa !11
  %85 = load i64, ptr %10, align 8, !tbaa !19
  %86 = load i64, ptr %9, align 8, !tbaa !19
  %87 = icmp ne i64 %85, %86
  br i1 %87, label %88, label %89

88:                                               ; preds = %74
  store i32 -1, ptr %5, align 4
  store i32 1, ptr %17, align 4
  br label %238

89:                                               ; preds = %74
  br label %90

90:                                               ; preds = %93, %89
  %91 = load i64, ptr %9, align 8, !tbaa !19
  %92 = icmp uge i64 %91, 16
  br i1 %92, label %93, label %143

93:                                               ; preds = %90
  %94 = load ptr, ptr %14, align 8, !tbaa !10
  %95 = load ptr, ptr %6, align 8, !tbaa !3
  %96 = getelementptr inbounds nuw %struct.ccm128_context, ptr %95, i32 0, i32 0
  %97 = getelementptr inbounds [16 x i8], ptr %96, i64 0, i64 0
  %98 = getelementptr inbounds [16 x i8], ptr %16, i64 0, i64 0
  %99 = load ptr, ptr %15, align 8, !tbaa !10
  call void %94(ptr noundef %97, ptr noundef %98, ptr noundef %99)
  %100 = load ptr, ptr %6, align 8, !tbaa !3
  %101 = getelementptr inbounds nuw %struct.ccm128_context, ptr %100, i32 0, i32 0
  %102 = getelementptr inbounds [16 x i8], ptr %101, i64 0, i64 0
  call void @ctr64_inc(ptr noundef %102)
  %103 = getelementptr inbounds [2 x i64], ptr %16, i64 0, i64 0
  %104 = load i64, ptr %103, align 8, !tbaa !11
  %105 = load ptr, ptr %7, align 8, !tbaa !17
  %106 = getelementptr inbounds i64, ptr %105, i64 0
  %107 = load i64, ptr %106, align 1, !tbaa !25
  %108 = xor i64 %104, %107
  %109 = load ptr, ptr %8, align 8, !tbaa !17
  %110 = getelementptr inbounds i64, ptr %109, i64 0
  store i64 %108, ptr %110, align 1, !tbaa !25
  %111 = load ptr, ptr %6, align 8, !tbaa !3
  %112 = getelementptr inbounds nuw %struct.ccm128_context, ptr %111, i32 0, i32 1
  %113 = getelementptr inbounds [2 x i64], ptr %112, i64 0, i64 0
  %114 = load i64, ptr %113, align 8, !tbaa !11
  %115 = xor i64 %114, %108
  store i64 %115, ptr %113, align 8, !tbaa !11
  %116 = getelementptr inbounds [2 x i64], ptr %16, i64 0, i64 1
  %117 = load i64, ptr %116, align 8, !tbaa !11
  %118 = load ptr, ptr %7, align 8, !tbaa !17
  %119 = getelementptr inbounds i64, ptr %118, i64 1
  %120 = load i64, ptr %119, align 1, !tbaa !25
  %121 = xor i64 %117, %120
  %122 = load ptr, ptr %8, align 8, !tbaa !17
  %123 = getelementptr inbounds i64, ptr %122, i64 1
  store i64 %121, ptr %123, align 1, !tbaa !25
  %124 = load ptr, ptr %6, align 8, !tbaa !3
  %125 = getelementptr inbounds nuw %struct.ccm128_context, ptr %124, i32 0, i32 1
  %126 = getelementptr inbounds [2 x i64], ptr %125, i64 0, i64 1
  %127 = load i64, ptr %126, align 8, !tbaa !11
  %128 = xor i64 %127, %121
  store i64 %128, ptr %126, align 8, !tbaa !11
  %129 = load ptr, ptr %14, align 8, !tbaa !10
  %130 = load ptr, ptr %6, align 8, !tbaa !3
  %131 = getelementptr inbounds nuw %struct.ccm128_context, ptr %130, i32 0, i32 1
  %132 = getelementptr inbounds [16 x i8], ptr %131, i64 0, i64 0
  %133 = load ptr, ptr %6, align 8, !tbaa !3
  %134 = getelementptr inbounds nuw %struct.ccm128_context, ptr %133, i32 0, i32 1
  %135 = getelementptr inbounds [16 x i8], ptr %134, i64 0, i64 0
  %136 = load ptr, ptr %15, align 8, !tbaa !10
  call void %129(ptr noundef %132, ptr noundef %135, ptr noundef %136)
  %137 = load ptr, ptr %7, align 8, !tbaa !17
  %138 = getelementptr inbounds i8, ptr %137, i64 16
  store ptr %138, ptr %7, align 8, !tbaa !17
  %139 = load ptr, ptr %8, align 8, !tbaa !17
  %140 = getelementptr inbounds i8, ptr %139, i64 16
  store ptr %140, ptr %8, align 8, !tbaa !17
  %141 = load i64, ptr %9, align 8, !tbaa !19
  %142 = sub i64 %141, 16
  store i64 %142, ptr %9, align 8, !tbaa !19
  br label %90, !llvm.loop !32

143:                                              ; preds = %90
  %144 = load i64, ptr %9, align 8, !tbaa !19
  %145 = icmp ne i64 %144, 0
  br i1 %145, label %146, label %198

146:                                              ; preds = %143
  %147 = load ptr, ptr %14, align 8, !tbaa !10
  %148 = load ptr, ptr %6, align 8, !tbaa !3
  %149 = getelementptr inbounds nuw %struct.ccm128_context, ptr %148, i32 0, i32 0
  %150 = getelementptr inbounds [16 x i8], ptr %149, i64 0, i64 0
  %151 = getelementptr inbounds [16 x i8], ptr %16, i64 0, i64 0
  %152 = load ptr, ptr %15, align 8, !tbaa !10
  call void %147(ptr noundef %150, ptr noundef %151, ptr noundef %152)
  store i32 0, ptr %11, align 4, !tbaa !8
  br label %153

153:                                              ; preds = %186, %146
  %154 = load i32, ptr %11, align 4, !tbaa !8
  %155 = zext i32 %154 to i64
  %156 = load i64, ptr %9, align 8, !tbaa !19
  %157 = icmp ult i64 %155, %156
  br i1 %157, label %158, label %189

158:                                              ; preds = %153
  %159 = load i32, ptr %11, align 4, !tbaa !8
  %160 = zext i32 %159 to i64
  %161 = getelementptr inbounds nuw [16 x i8], ptr %16, i64 0, i64 %160
  %162 = load i8, ptr %161, align 1, !tbaa !11
  %163 = zext i8 %162 to i32
  %164 = load ptr, ptr %7, align 8, !tbaa !17
  %165 = load i32, ptr %11, align 4, !tbaa !8
  %166 = zext i32 %165 to i64
  %167 = getelementptr inbounds nuw i8, ptr %164, i64 %166
  %168 = load i8, ptr %167, align 1, !tbaa !11
  %169 = zext i8 %168 to i32
  %170 = xor i32 %163, %169
  %171 = trunc i32 %170 to i8
  %172 = load ptr, ptr %8, align 8, !tbaa !17
  %173 = load i32, ptr %11, align 4, !tbaa !8
  %174 = zext i32 %173 to i64
  %175 = getelementptr inbounds nuw i8, ptr %172, i64 %174
  store i8 %171, ptr %175, align 1, !tbaa !11
  %176 = zext i8 %171 to i32
  %177 = load ptr, ptr %6, align 8, !tbaa !3
  %178 = getelementptr inbounds nuw %struct.ccm128_context, ptr %177, i32 0, i32 1
  %179 = load i32, ptr %11, align 4, !tbaa !8
  %180 = zext i32 %179 to i64
  %181 = getelementptr inbounds nuw [16 x i8], ptr %178, i64 0, i64 %180
  %182 = load i8, ptr %181, align 1, !tbaa !11
  %183 = zext i8 %182 to i32
  %184 = xor i32 %183, %176
  %185 = trunc i32 %184 to i8
  store i8 %185, ptr %181, align 1, !tbaa !11
  br label %186

186:                                              ; preds = %158
  %187 = load i32, ptr %11, align 4, !tbaa !8
  %188 = add i32 %187, 1
  store i32 %188, ptr %11, align 4, !tbaa !8
  br label %153, !llvm.loop !33

189:                                              ; preds = %153
  %190 = load ptr, ptr %14, align 8, !tbaa !10
  %191 = load ptr, ptr %6, align 8, !tbaa !3
  %192 = getelementptr inbounds nuw %struct.ccm128_context, ptr %191, i32 0, i32 1
  %193 = getelementptr inbounds [16 x i8], ptr %192, i64 0, i64 0
  %194 = load ptr, ptr %6, align 8, !tbaa !3
  %195 = getelementptr inbounds nuw %struct.ccm128_context, ptr %194, i32 0, i32 1
  %196 = getelementptr inbounds [16 x i8], ptr %195, i64 0, i64 0
  %197 = load ptr, ptr %15, align 8, !tbaa !10
  call void %190(ptr noundef %193, ptr noundef %196, ptr noundef %197)
  br label %198

198:                                              ; preds = %189, %143
  %199 = load i32, ptr %12, align 4, !tbaa !8
  %200 = sub i32 15, %199
  store i32 %200, ptr %11, align 4, !tbaa !8
  br label %201

201:                                              ; preds = %210, %198
  %202 = load i32, ptr %11, align 4, !tbaa !8
  %203 = icmp ult i32 %202, 16
  br i1 %203, label %204, label %213

204:                                              ; preds = %201
  %205 = load ptr, ptr %6, align 8, !tbaa !3
  %206 = getelementptr inbounds nuw %struct.ccm128_context, ptr %205, i32 0, i32 0
  %207 = load i32, ptr %11, align 4, !tbaa !8
  %208 = zext i32 %207 to i64
  %209 = getelementptr inbounds nuw [16 x i8], ptr %206, i64 0, i64 %208
  store i8 0, ptr %209, align 1, !tbaa !11
  br label %210

210:                                              ; preds = %204
  %211 = load i32, ptr %11, align 4, !tbaa !8
  %212 = add i32 %211, 1
  store i32 %212, ptr %11, align 4, !tbaa !8
  br label %201, !llvm.loop !34

213:                                              ; preds = %201
  %214 = load ptr, ptr %14, align 8, !tbaa !10
  %215 = load ptr, ptr %6, align 8, !tbaa !3
  %216 = getelementptr inbounds nuw %struct.ccm128_context, ptr %215, i32 0, i32 0
  %217 = getelementptr inbounds [16 x i8], ptr %216, i64 0, i64 0
  %218 = getelementptr inbounds [16 x i8], ptr %16, i64 0, i64 0
  %219 = load ptr, ptr %15, align 8, !tbaa !10
  call void %214(ptr noundef %217, ptr noundef %218, ptr noundef %219)
  %220 = getelementptr inbounds [2 x i64], ptr %16, i64 0, i64 0
  %221 = load i64, ptr %220, align 8, !tbaa !11
  %222 = load ptr, ptr %6, align 8, !tbaa !3
  %223 = getelementptr inbounds nuw %struct.ccm128_context, ptr %222, i32 0, i32 1
  %224 = getelementptr inbounds [2 x i64], ptr %223, i64 0, i64 0
  %225 = load i64, ptr %224, align 8, !tbaa !11
  %226 = xor i64 %225, %221
  store i64 %226, ptr %224, align 8, !tbaa !11
  %227 = getelementptr inbounds [2 x i64], ptr %16, i64 0, i64 1
  %228 = load i64, ptr %227, align 8, !tbaa !11
  %229 = load ptr, ptr %6, align 8, !tbaa !3
  %230 = getelementptr inbounds nuw %struct.ccm128_context, ptr %229, i32 0, i32 1
  %231 = getelementptr inbounds [2 x i64], ptr %230, i64 0, i64 1
  %232 = load i64, ptr %231, align 8, !tbaa !11
  %233 = xor i64 %232, %228
  store i64 %233, ptr %231, align 8, !tbaa !11
  %234 = load i8, ptr %13, align 1, !tbaa !11
  %235 = load ptr, ptr %6, align 8, !tbaa !3
  %236 = getelementptr inbounds nuw %struct.ccm128_context, ptr %235, i32 0, i32 0
  %237 = getelementptr inbounds [16 x i8], ptr %236, i64 0, i64 0
  store i8 %234, ptr %237, align 8, !tbaa !11
  store i32 0, ptr %5, align 4
  store i32 1, ptr %17, align 4
  br label %238

238:                                              ; preds = %213, %88
  call void @llvm.lifetime.end.p0(i64 16, ptr %16) #4
  call void @llvm.lifetime.end.p0(i64 8, ptr %15) #4
  call void @llvm.lifetime.end.p0(i64 8, ptr %14) #4
  call void @llvm.lifetime.end.p0(i64 1, ptr %13) #4
  call void @llvm.lifetime.end.p0(i64 4, ptr %12) #4
  call void @llvm.lifetime.end.p0(i64 4, ptr %11) #4
  call void @llvm.lifetime.end.p0(i64 8, ptr %10) #4
  %239 = load i32, ptr %5, align 4
  ret i32 %239
}