; Function Attrs: nounwind uwtable
define range(i32 -1, 1) i32 @CRYPTO_ccm128_decrypt(ptr noundef %0, ptr noundef readonly captures(none) %1, ptr noundef writeonly captures(none) %2, i64 noundef %3) local_unnamed_addr #5 {
  %5 = alloca %union.anon.1, align 8
  %6 = load i8, ptr %0, align 8, !tbaa !3
  %7 = getelementptr inbounds nuw i8, ptr %0, i64 40
  %8 = load ptr, ptr %7, align 8, !tbaa !10
  %9 = getelementptr inbounds nuw i8, ptr %0, i64 48
  %10 = load ptr, ptr %9, align 8, !tbaa !11
  call void @llvm.lifetime.start.p0(i64 16, ptr nonnull %5) #7
  %11 = zext i8 %6 to i32
  %12 = and i32 %11, 64
  %.not = icmp eq i32 %12, 0
  br i1 %.not, label %13, label %15

13:                                               ; preds = %4
  %14 = getelementptr inbounds nuw i8, ptr %0, i64 16
  tail call void %8(ptr noundef nonnull %0, ptr noundef nonnull %14, ptr noundef %10) #7
  br label %15

15:                                               ; preds = %13, %4
  %16 = and i32 %11, 7
  %17 = trunc nuw nsw i32 %16 to i8
  store i8 %17, ptr %0, align 8, !tbaa !3
  %18 = xor i32 %16, 15
  %.not96 = icmp eq i32 %16, 0
  br i1 %.not96, label %._crit_edge, label %.lr.ph.preheader

.lr.ph.preheader:                                 ; preds = %15
  %19 = zext nneg i32 %18 to i64
  %umax = tail call i32 @llvm.umax.i32(i32 %18, i32 14)
  %20 = add nuw nsw i32 %umax, 1
  %wide.trip.count = zext nneg i32 %20 to i64
  br label %.lr.ph

.lr.ph:                                           ; preds = %.lr.ph.preheader, %.lr.ph
  %indvars.iv = phi i64 [ %19, %.lr.ph.preheader ], [ %indvars.iv.next, %.lr.ph ]
  %.07681 = phi i64 [ 0, %.lr.ph.preheader ], [ %25, %.lr.ph ]
  %21 = getelementptr inbounds nuw [16 x i8], ptr %0, i64 0, i64 %indvars.iv
  %22 = load i8, ptr %21, align 1, !tbaa !3
  %23 = zext i8 %22 to i64
  %24 = or disjoint i64 %.07681, %23
  store i8 0, ptr %21, align 1, !tbaa !3
  %25 = shl i64 %24, 8
  %indvars.iv.next = add nuw nsw i64 %indvars.iv, 1
  %exitcond.not = icmp eq i64 %indvars.iv.next, %wide.trip.count
  br i1 %exitcond.not, label %._crit_edge, label %.lr.ph, !llvm.loop !21

._crit_edge:                                      ; preds = %.lr.ph, %15
  %.076.lcssa = phi i64 [ 0, %15 ], [ %25, %.lr.ph ]
  %26 = getelementptr inbounds nuw i8, ptr %0, i64 15
  %27 = load i8, ptr %26, align 1, !tbaa !3
  %28 = zext i8 %27 to i64
  %29 = or disjoint i64 %.076.lcssa, %28
  store i8 1, ptr %26, align 1, !tbaa !3
  %.not79 = icmp eq i64 %29, %3
  br i1 %.not79, label %.preheader, label %81

.preheader:                                       ; preds = %._crit_edge
  %30 = icmp ugt i64 %3, 15
  br i1 %30, label %.lr.ph86, label %._crit_edge87

.lr.ph86:                                         ; preds = %.preheader
  %31 = getelementptr inbounds nuw i8, ptr %0, i64 8
  %32 = getelementptr inbounds nuw i8, ptr %0, i64 16
  %33 = getelementptr inbounds nuw i8, ptr %5, i64 8
  %34 = getelementptr inbounds nuw i8, ptr %0, i64 24
  br label %35

35:                                               ; preds = %.lr.ph86, %ctr64_inc.exit
  %.07285 = phi ptr [ %1, %.lr.ph86 ], [ %52, %ctr64_inc.exit ]
  %.07384 = phi ptr [ %2, %.lr.ph86 ], [ %53, %ctr64_inc.exit ]
  %.07483 = phi i64 [ %3, %.lr.ph86 ], [ %54, %ctr64_inc.exit ]
  call void %8(ptr noundef nonnull %0, ptr noundef nonnull %5, ptr noundef %10) #7
  br label %36

36:                                               ; preds = %36, %35
  %indvars.iv.i = phi i64 [ %indvars.iv.next.i, %36 ], [ 8, %35 ]
  %indvars.iv.next.i = add nsw i64 %indvars.iv.i, -1
  %37 = getelementptr inbounds nuw i8, ptr %31, i64 %indvars.iv.next.i
  %38 = load i8, ptr %37, align 1, !tbaa !3
  %39 = add i8 %38, 1
  store i8 %39, ptr %37, align 1, !tbaa !3
  %.not.i = icmp ne i8 %39, 0
  %.not10.i = icmp eq i64 %indvars.iv.next.i, 0
  %or.cond.i = or i1 %.not10.i, %.not.i
  br i1 %or.cond.i, label %ctr64_inc.exit, label %36, !llvm.loop !17

ctr64_inc.exit:                                   ; preds = %36
  %40 = load i64, ptr %5, align 8, !tbaa !3
  %41 = load i64, ptr %.07285, align 1, !tbaa !16
  %42 = xor i64 %41, %40
  store i64 %42, ptr %.07384, align 1, !tbaa !16
  %43 = load i64, ptr %32, align 8, !tbaa !3
  %44 = xor i64 %43, %42
  store i64 %44, ptr %32, align 8, !tbaa !3
  %45 = load i64, ptr %33, align 8, !tbaa !3
  %46 = getelementptr inbounds nuw i8, ptr %.07285, i64 8
  %47 = load i64, ptr %46, align 1, !tbaa !16
  %48 = xor i64 %47, %45
  %49 = getelementptr inbounds nuw i8, ptr %.07384, i64 8
  store i64 %48, ptr %49, align 1, !tbaa !16
  %50 = load i64, ptr %34, align 8, !tbaa !3
  %51 = xor i64 %50, %48
  store i64 %51, ptr %34, align 8, !tbaa !3
  call void %8(ptr noundef nonnull %32, ptr noundef nonnull %32, ptr noundef %10) #7
  %52 = getelementptr inbounds nuw i8, ptr %.07285, i64 16
  %53 = getelementptr inbounds nuw i8, ptr %.07384, i64 16
  %54 = add i64 %.07483, -16
  %55 = icmp ugt i64 %54, 15
  br i1 %55, label %35, label %._crit_edge87, !llvm.loop !22

._crit_edge87:                                    ; preds = %ctr64_inc.exit, %.preheader
  %.074.lcssa = phi i64 [ %3, %.preheader ], [ %54, %ctr64_inc.exit ]
  %.073.lcssa = phi ptr [ %2, %.preheader ], [ %53, %ctr64_inc.exit ]
  %.072.lcssa = phi ptr [ %1, %.preheader ], [ %52, %ctr64_inc.exit ]
  %.not80 = icmp eq i64 %.074.lcssa, 0
  br i1 %.not80, label %._crit_edge95, label %56

56:                                               ; preds = %._crit_edge87
  call void %8(ptr noundef nonnull %0, ptr noundef nonnull %5, ptr noundef %10) #7
  %57 = getelementptr inbounds nuw i8, ptr %0, i64 16
  br label %58

58:                                               ; preds = %56, %58
  %indvars.iv101 = phi i64 [ 0, %56 ], [ %indvars.iv.next102, %58 ]
  %59 = getelementptr inbounds nuw [16 x i8], ptr %5, i64 0, i64 %indvars.iv101
  %60 = load i8, ptr %59, align 1, !tbaa !3
  %61 = getelementptr inbounds nuw i8, ptr %.072.lcssa, i64 %indvars.iv101
  %62 = load i8, ptr %61, align 1, !tbaa !3
  %63 = xor i8 %62, %60
  %64 = getelementptr inbounds nuw i8, ptr %.073.lcssa, i64 %indvars.iv101
  store i8 %63, ptr %64, align 1, !tbaa !3
  %65 = getelementptr inbounds nuw [16 x i8], ptr %57, i64 0, i64 %indvars.iv101
  %66 = load i8, ptr %65, align 1, !tbaa !3
  %67 = xor i8 %66, %63
  store i8 %67, ptr %65, align 1, !tbaa !3
  %indvars.iv.next102 = add nuw i64 %indvars.iv101, 1
  %exitcond104.not = icmp eq i64 %indvars.iv.next102, %.074.lcssa
  br i1 %exitcond104.not, label %68, label %58, !llvm.loop !23

68:                                               ; preds = %58
  call void %8(ptr noundef nonnull %57, ptr noundef nonnull %57, ptr noundef %10) #7
  br label %._crit_edge95

._crit_edge95:                                    ; preds = %68, %._crit_edge87
  %69 = zext nneg i32 %18 to i64
  %scevgep = getelementptr i8, ptr %0, i64 %69
  %70 = sub nuw nsw i32 16, %18
  %71 = zext nneg i32 %70 to i64
  call void @llvm.memset.p0.i64(ptr noundef nonnull align 1 dereferenceable(1) %scevgep, i8 0, i64 %71, i1 false), !tbaa !3
  call void %8(ptr noundef nonnull %0, ptr noundef nonnull %5, ptr noundef %10) #7
  %72 = load i64, ptr %5, align 8, !tbaa !3
  %73 = getelementptr inbounds nuw i8, ptr %0, i64 16
  %74 = load i64, ptr %73, align 8, !tbaa !3
  %75 = xor i64 %74, %72
  store i64 %75, ptr %73, align 8, !tbaa !3
  %76 = getelementptr inbounds nuw i8, ptr %5, i64 8
  %77 = load i64, ptr %76, align 8, !tbaa !3
  %78 = getelementptr inbounds nuw i8, ptr %0, i64 24
  %79 = load i64, ptr %78, align 8, !tbaa !3
  %80 = xor i64 %79, %77
  store i64 %80, ptr %78, align 8, !tbaa !3
  store i8 %6, ptr %0, align 8, !tbaa !3
  br label %81

81:                                               ; preds = %._crit_edge, %._crit_edge95
  %.0 = phi i32 [ 0, %._crit_edge95 ], [ -1, %._crit_edge ]
  call void @llvm.lifetime.end.p0(i64 16, ptr nonnull %5) #7
  ret i32 %.0
}